(dp1
S'output'
p2
S"<type 'exceptions.AttributeError'> 'module' object has no attribute 'unicode_helper'"
p3
sS'layer'
p4
S'C:\\Users\\Will\\Desktop\\web2py\\applications\\admin\\controllers/debug.py'
p5
sS'code'
p6
S'import os\nimport sys\nimport cStringIO\nimport gluon.contrib.shell\nimport gluon.dal\nimport gluon.html\nimport gluon.validators\nimport code\nimport thread\nfrom gluon.debug import communicate, web_debugger, qdb_debugger\nimport pydoc\n\n\nif DEMO_MODE or MULTI_USER_MODE:\n    session.flash = T(\'disabled in demo mode\')\n    redirect(URL(\'default\', \'site\'))\n\nFE = 10 ** 9\n\n\ndef index():\n    app = request.args(0) or \'admin\'\n    reset()\n    # read buffer\n    data = communicate()\n    return dict(app=app, data=data)\n\n\ndef callback():\n    app = request.args[0]\n    command = request.vars.statement\n    session[\'debug_commands:\' + app].append(command)\n    output = communicate(command)\n    k = len(session[\'debug_commands:\' + app]) - 1\n    return \'[%i] %s%s\\n\' % (k + 1, command, output)\n\n\ndef reset():\n    app = request.args(0) or \'admin\'\n    session[\'debug_commands:\' + app] = []\n    return \'done\'\n\n\n# new implementation using qdb\n\ndef interact():\n    app = request.args(0) or \'admin\'\n    reset()\n\n    # process all pending messages in the frontend\n    web_debugger.run()\n\n    # if debugging, filename and lineno should have valid values\n    filename = web_debugger.filename\n    lineno = web_debugger.lineno\n    if filename:\n        # prevent IOError 2 on some circuntances (EAFP instead of os.access)\n        try:\n            lines = open(filename).readlines()\n        except:\n            lines = ""\n        lines = dict([(i + 1, l) for (i, l) in enumerate(\n            [l.strip("\\n").strip("\\r") for l in lines])])\n        filename = os.path.basename(filename)\n    else:\n        lines = {}\n\n    if filename:\n        web_debugger.set_burst(2)\n        env = web_debugger.do_environment()\n        f_locals = env[\'locals\']\n        f_globals = {}\n        for name, value in env[\'globals\'].items():\n            if name not in gluon.html.__all__ and \\\n                name not in gluon.validators.__all__ and \\\n                    name not in gluon.dal.__all__:\n                f_globals[name] = pydoc.text.repr(value)\n    else:\n        f_locals = {}\n        f_globals = {}\n        response.headers[\'refresh\'] = "3"\n\n    if web_debugger.exception_info:\n        response.flash = T(\'"User Exception" debug mode. \'\n                           \'An error ticket could be issued!\')\n\n    return dict(app=app, data="",\n                filename=web_debugger.filename, lines=lines, lineno=lineno,\n                f_globals=f_globals, f_locals=f_locals,\n                exception=web_debugger.exception_info)\n\n\ndef step():\n    web_debugger.do_step()\n    redirect(URL("interact"))\n\n\ndef next():\n    web_debugger.do_next()\n    redirect(URL("interact"))\n\n\ndef cont():\n    web_debugger.do_continue()\n    redirect(URL("interact"))\n\n\ndef ret():\n    web_debugger.do_return()\n    redirect(URL("interact"))\n\n\ndef stop():\n    web_debugger.do_quit()\n    redirect(URL("interact"))\n\n\ndef execute():\n    app = request.args[0]\n    command = request.vars.statement\n    session[\'debug_commands:\' + app].append(command)\n    try:\n        output = web_debugger.do_exec(command)\n        if output is None:\n            output = ""\n    except Exception, e:\n        output = T("Exception %s") % str(e)\n    k = len(session[\'debug_commands:\' + app]) - 1\n    return \'[%i] %s%s\\n\' % (k + 1, command, output)\n\n\ndef breakpoints():\n    "Add or remove breakpoints"\n\n    # Get all .py files\n    files = listdir(apath(\'\', r=request), \'.*\\.py$\')\n    files = [filename for filename in files\n             if filename and \'languages\' not in filename\n             and not filename.startswith("admin")\n             and not filename.startswith("examples")]\n\n    form = SQLFORM.factory(\n        Field(\'filename\', requires=IS_IN_SET(files), label=T("Filename")),\n        Field(\'lineno\', \'integer\', label=T("Line number"),\n              requires=IS_NOT_EMPTY()),\n        Field(\'temporary\', \'boolean\', label=T("Temporary"),\n              comment=T("deleted after first hit")),\n        Field(\'condition\', \'string\', label=T("Condition"),\n              comment=T("honored only if the expression evaluates to true")),\n    )\n\n    if form.accepts(request.vars, session):\n        filename = os.path.join(request.env[\'applications_parent\'],\n                                \'applications\', form.vars.filename)\n        err = qdb_debugger.do_set_breakpoint(filename,\n                                             form.vars.lineno,\n                                             form.vars.temporary,\n                                             form.vars.condition)\n        response.flash = T("Set Breakpoint on %s at line %s: %s") % (\n            filename, form.vars.lineno, err or T(\'successful\'))\n\n    for item in request.vars:\n        if item[:7] == \'delete_\':\n            qdb_debugger.do_clear(item[7:])\n\n    breakpoints = [{\'number\': bp[0], \'filename\': os.path.basename(bp[1]),\n                    \'path\': bp[1], \'lineno\': bp[2],\n                    \'temporary\': bp[3], \'enabled\': bp[4], \'hits\': bp[5],\n                    \'condition\': bp[6]}\n                   for bp in qdb_debugger.do_list_breakpoint()]\n\n    return dict(breakpoints=breakpoints, form=form)\n\n\ndef toggle_breakpoint():\n    "Set or clear a breakpoint"\n\n    lineno = None\n    ok = None\n    try:\n        filename = os.path.join(request.env[\'applications_parent\'],\n                                \'applications\', request.vars.filename)\n        # normalize path name: replace slashes, references, etc...\n        filename = os.path.normpath(os.path.normcase(filename))\n        if not request.vars.data:\n            # ace send us the line number!\n            lineno = int(request.vars.sel_start) + 1\n        else:\n            # editarea send us the offset, manually check the cursor pos\n            start = 0\n            sel_start = int(request.vars.sel_start)\n            for lineno, line in enumerate(request.vars.data.split("\\n")):\n                if sel_start <= start:\n                    break\n                start += len(line) + 1\n            else:\n                lineno = None\n        if lineno is not None:\n            for bp in qdb_debugger.do_list_breakpoint():\n                no, bp_filename, bp_lineno, temporary, enabled, hits, cond = bp\n                # normalize path name: replace slashes, references, etc...\n                bp_filename = os.path.normpath(os.path.normcase(bp_filename))\n                if filename == bp_filename and lineno == bp_lineno:\n                    err = qdb_debugger.do_clear_breakpoint(filename, lineno)\n                    response.flash = T("Removed Breakpoint on %s at line %s", (\n                        filename, lineno))\n                    ok = False\n                    break\n            else:\n                err = qdb_debugger.do_set_breakpoint(filename, lineno)\n                response.flash = T("Set Breakpoint on %s at line %s: %s") % (\n                    filename, lineno, err or T(\'successful\'))\n                ok = True\n        else:\n            response.flash = T("Unable to determine the line number!")\n    except Exception, e:\n        session.flash = str(e)\n    return response.json({\'ok\': ok, \'lineno\': lineno})\n\ndef list_breakpoints():\n    "Return a list of linenumbers for current breakpoints"\n\n    breakpoints = []\n    ok = None\n    try:\n        filename = os.path.join(request.env[\'applications_parent\'],\n                                \'applications\', request.vars.filename)\n        # normalize path name: replace slashes, references, etc...\n        filename = os.path.normpath(os.path.normcase(filename))\n        for bp in qdb_debugger.do_list_breakpoint():\n            no, bp_filename, bp_lineno, temporary, enabled, hits, cond = bp\n            # normalize path name: replace slashes, references, etc...\n            bp_filename = os.path.normpath(os.path.normcase(bp_filename))\n            if filename == bp_filename:\n                breakpoints.append(bp_lineno)\n        ok = True\n    except Exception, e:\n        session.flash = str(e)\n        ok = False\n    return response.json({\'ok\': ok, \'breakpoints\': breakpoints})\n\nresponse._vars=response._caller(list_breakpoints)\n'
p7
sS'snapshot'
p8
(dp9
S'exception'
p10
(dp11
S'__hash__'
p12
S"<method-wrapper '__hash__' of exceptions.AttributeError object>"
p13
sS'__setattr__'
p14
S"<method-wrapper '__setattr__' of exceptions.AttributeError object>"
p15
sS'__reduce_ex__'
p16
S'<built-in method __reduce_ex__ of exceptions.AttributeError object>'
p17
sS'__getslice__'
p18
S"<method-wrapper '__getslice__' of exceptions.AttributeError object>"
p19
sS'__getitem__'
p20
S"<method-wrapper '__getitem__' of exceptions.AttributeError object>"
p21
sS'__setstate__'
p22
S'<built-in method __setstate__ of exceptions.AttributeError object>'
p23
sS'__reduce__'
p24
S'<built-in method __reduce__ of exceptions.AttributeError object>'
p25
sS'__str__'
p26
S"<method-wrapper '__str__' of exceptions.AttributeError object>"
p27
sS'__format__'
p28
S'<built-in method __format__ of exceptions.AttributeError object>'
p29
sS'__getattribute__'
p30
S"<method-wrapper '__getattribute__' of exceptions.AttributeError object>"
p31
sS'__class__'
p32
S"<type 'exceptions.AttributeError'>"
p33
sS'__unicode__'
p34
S'<built-in method __unicode__ of exceptions.AttributeError object>'
p35
sS'__delattr__'
p36
S"<method-wrapper '__delattr__' of exceptions.AttributeError object>"
p37
sS'__subclasshook__'
p38
S'<built-in method __subclasshook__ of type object>'
p39
sS'__repr__'
p40
S"<method-wrapper '__repr__' of exceptions.AttributeError object>"
p41
sS'args'
p42
S'("\'module\' object has no attribute \'unicode_helper\'",)'
p43
sS'__dict__'
p44
S'{}'
p45
sS'__sizeof__'
p46
S'<built-in method __sizeof__ of exceptions.AttributeError object>'
p47
sS'__doc__'
p48
S"'Attribute not found.'"
p49
sS'__init__'
p50
S"<method-wrapper '__init__' of exceptions.AttributeError object>"
p51
sS'__new__'
p52
S'<built-in method __new__ of type object>'
p53
ssS'evalue'
p54
S"'module' object has no attribute 'unicode_helper'"
p55
sS'request'
p56
cgluon.html
XML_unpickle
p57
(S's}b\x00\x00<div><table><tr><td style="font-weight:bold;vertical-align:top;">ajax</td><td style="vertical-align:top;">:</td><td><div>True</div></td></tr><tr><td style="font-weight:bold;vertical-align:top;">application</td><td style="vertical-align:top;">:</td><td><div>admin</div></td></tr><tr><td style="font-weight:bold;vertical-align:top;">args</td><td style="vertical-align:top;">:</td><td><div><table></table></div></td></tr><tr><td style="font-weight:bold;vertical-align:top;">cid</td><td style="vertical-align:top;">:</td><td><div>doListBreakpoints</div></td></tr><tr><td style="font-weight:bold;vertical-align:top;">client</td><td style="vertical-align:top;">:</td><td><div>127.0.0.1</div></td></tr><tr><td style="font-weight:bold;vertical-align:top;">controller</td><td style="vertical-align:top;">:</td><td><div>debug</div></td></tr><tr><td style="font-weight:bold;vertical-align:top;">cookies</td><td style="vertical-align:top;">:</td><td><div><table><tr><td style="font-weight:bold;vertical-align:top;">session_id_admin</td><td style="vertical-align:top;">:</td><td><div>127.0.0.1-34c2a0b1-37f7-4ea6-80d8-e3a3b41777bb<table><tr><td style="font-weight:bold;vertical-align:top;">comment</td><td style="vertical-align:top;">:</td><td><div></div></td></tr><tr><td style="font-weight:bold;vertical-align:top;">domain</td><td style="vertical-align:top;">:</td><td><div></div></td></tr><tr><td style="font-weight:bold;vertical-align:top;">expires</td><td style="vertical-align:top;">:</td><td><div></div></td></tr><tr><td style="font-weight:bold;vertical-align:top;">httponly</td><td style="vertical-align:top;">:</td><td><div></div></td></tr><tr><td style="font-weight:bold;vertical-align:top;">max-age</td><td style="vertical-align:top;">:</td><td><div></div></td></tr><tr><td style="font-weight:bold;vertical-align:top;">path</td><td style="vertical-align:top;">:</td><td><div></div></td></tr><tr><td style="font-weight:bold;vertical-align:top;">secure</td><td style="vertical-align:top;">:</td><td><div></div></td></tr><tr><td style="font-weight:bold;vertical-align:top;">version</td><td style="vertical-align:top;">:</td><td><div></div></td></tr></table></div></td></tr><tr><td style="font-weight:bold;vertical-align:top;">session_id_welcome</td><td style="vertical-align:top;">:</td><td><div>127.0.0.1-ff76e38b-267a-4115-a886-5c1468db4102<table><tr><td style="font-weight:bold;vertical-align:top;">comment</td><td style="vertical-align:top;">:</td><td><div></div></td></tr><tr><td style="font-weight:bold;vertical-align:top;">domain</td><td style="vertical-align:top;">:</td><td><div></div></td></tr><tr><td style="font-weight:bold;vertical-align:top;">expires</td><td style="vertical-align:top;">:</td><td><div></div></td></tr><tr><td style="font-weight:bold;vertical-align:top;">httponly</td><td style="vertical-align:top;">:</td><td><div></div></td></tr><tr><td style="font-weight:bold;vertical-align:top;">max-age</td><td style="vertical-align:top;">:</td><td><div></div></td></tr><tr><td style="font-weight:bold;vertical-align:top;">path</td><td style="vertical-align:top;">:</td><td><div></div></td></tr><tr><td style="font-weight:bold;vertical-align:top;">secure</td><td style="vertical-align:top;">:</td><td><div></div></td></tr><tr><td style="font-weight:bold;vertical-align:top;">version</td><td style="vertical-align:top;">:</td><td><div></div></td></tr></table></div></td></tr></table></div></td></tr><tr><td style="font-weight:bold;vertical-align:top;">env</td><td style="vertical-align:top;">:</td><td><div><table><tr><td style="font-weight:bold;vertical-align:top;">CONTENT_LENGTH</td><td style="vertical-align:top;">:</td><td><div>89</div></td></tr><tr><td style="font-weight:bold;vertical-align:top;">CONTENT_TYPE</td><td style="vertical-align:top;">:</td><td><div>multipart/form-data;boundary=&quot;1480&quot;</div></td></tr><tr><td style="font-weight:bold;vertical-align:top;">HTTP_ACCEPT</td><td style="vertical-align:top;">:</td><td><div>application/json, text/javascript, */*; q=0.01</div></td></tr><tr><td style="font-weight:bold;vertical-align:top;">HTTP_ACCEPT_ENCODING</td><td style="vertical-align:top;">:</td><td><div>gzip,deflate</div></td></tr><tr><td style="font-weight:bold;vertical-align:top;">HTTP_ACCEPT_LANGUAGE</td><td style="vertical-align:top;">:</td><td><div>en-US,en;q=0.8</div></td></tr><tr><td style="font-weight:bold;vertical-align:top;">HTTP_CONNECTION</td><td style="vertical-align:top;">:</td><td><div>keep-alive</div></td></tr><tr><td style="font-weight:bold;vertical-align:top;">HTTP_CONTENT_LENGTH</td><td style="vertical-align:top;">:</td><td><div>89</div></td></tr><tr><td style="font-weight:bold;vertical-align:top;">HTTP_CONTENT_TYPE</td><td style="vertical-align:top;">:</td><td><div>multipart/form-data;boundary=&quot;1480&quot;</div></td></tr><tr><td style="font-weight:bold;vertical-align:top;">HTTP_COOKIE</td><td style="vertical-align:top;">:</td><td><div>session_id_welcome=127.0.0.1-ff76e38b-267a-4115-a886-5c1468db4102; session_id_admin=127.0.0.1-34c2a0b1-37f7-4ea6-80d8-e3a3b41777bb</div></td></tr><tr><td style="font-weight:bold;vertical-align:top;">HTTP_HOST</td><td style="vertical-align:top;">:</td><td><div>127.0.0.1:8000</div></td></tr><tr><td style="font-weight:bold;vertical-align:top;">HTTP_ORIGIN</td><td style="vertical-align:top;">:</td><td><div>http://127.0.0.1:8000</div></td></tr><tr><td style="font-weight:bold;vertical-align:top;">HTTP_REFERER</td><td style="vertical-align:top;">:</td><td><div>http://127.0.0.1:8000/admin/default/edit/welcome/models/db.py?id=models__db__py</div></td></tr><tr><td style="font-weight:bold;vertical-align:top;">HTTP_USER_AGENT</td><td style="vertical-align:top;">:</td><td><div>Mozilla/5.0 (Windows NT 6.1; WOW64) AppleWebKit/537.36 (KHTML, like Gecko) Chrome/38.0.2125.111 Safari/537.36</div></td></tr><tr><td style="font-weight:bold;vertical-align:top;">HTTP_WEB2PY_COMPONENT_ELEMENT</td><td style="vertical-align:top;">:</td><td><div>doListBreakpoints</div></td></tr><tr><td style="font-weight:bold;vertical-align:top;">HTTP_WEB2PY_COMPONENT_LOCATION</td><td style="vertical-align:top;">:</td><td><div>http://127.0.0.1:8000/admin/default/edit/welcome/models/db.py?id=models__db__py</div></td></tr><tr><td style="font-weight:bold;vertical-align:top;">HTTP_X_REQUESTED_WITH</td><td style="vertical-align:top;">:</td><td><div>XMLHttpRequest</div></td></tr><tr><td style="font-weight:bold;vertical-align:top;">PATH_INFO</td><td style="vertical-align:top;">:</td><td><div>/admin/debug/list_breakpoints</div></td></tr><tr><td style="font-weight:bold;vertical-align:top;">QUERY_STRING</td><td style="vertical-align:top;">:</td><td><div></div></td></tr><tr><td style="font-weight:bold;vertical-align:top;">REMOTE_ADDR</td><td style="vertical-align:top;">:</td><td><div>127.0.0.1</div></td></tr><tr><td style="font-weight:bold;vertical-align:top;">REMOTE_PORT</td><td style="vertical-align:top;">:</td><td><div>55287</div></td></tr><tr><td style="font-weight:bold;vertical-align:top;">REQUEST_METHOD</td><td style="vertical-align:top;">:</td><td><div>POST</div></td></tr><tr><td style="font-weight:bold;vertical-align:top;">SCRIPT_NAME</td><td style="vertical-align:top;">:</td><td><div></div></td></tr><tr><td style="font-weight:bold;vertical-align:top;">SERVER_NAME</td><td style="vertical-align:top;">:</td><td><div>UltraWILL</div></td></tr><tr><td style="font-weight:bold;vertical-align:top;">SERVER_PORT</td><td style="vertical-align:top;">:</td><td><div>8000</div></td></tr><tr><td style="font-weight:bold;vertical-align:top;">SERVER_PROTOCOL</td><td style="vertical-align:top;">:</td><td><div>HTTP/1.1</div></td></tr><tr><td style="font-weight:bold;vertical-align:top;">SERVER_SOFTWARE</td><td style="vertical-align:top;">:</td><td><div>Rocket 1.2.6</div></td></tr><tr><td style="font-weight:bold;vertical-align:top;">app_folders</td><td style="vertical-align:top;">:</td><td><div>set([&#x27;C:\\\\Users\\\\Will\\\\Desktop\\\\web2py\\\\applications\\\\admin\\\\&#x27;, &#x27;C:\\\\Users\\\\Will\\\\Desktop\\\\web2py\\\\applications\\\\welcome\\\\&#x27;])</div></td></tr><tr><td style="font-weight:bold;vertical-align:top;">applications_parent</td><td style="vertical-align:top;">:</td><td><div>C:\\Users\\Will\\Desktop\\web2py</div></td></tr><tr><td style="font-weight:bold;vertical-align:top;">cmd_args</td><td style="vertical-align:top;">:</td><td><div><table></table></div></td></tr><tr><td style="font-weight:bold;vertical-align:top;">cmd_options</td><td style="vertical-align:top;">:</td><td><div>&lt;Values at 0x31f3760: {&#x27;verbose&#x27;: False, &#x27;ip&#x27;: &#x27;127.0.0.1&#x27;, &#x27;debuglevel&#x27;: 30, &#x27;with_scheduler&#x27;: False, &#x27;ips&#x27;: [&#x27;10.21.5.114&#x27;, &#x27;fe80::6538:180a:7cd2:7ff2%21&#x27;, &#x27;192.168.56.1&#x27;, &#x27;fe80::dc8d:5e8e:3195:ea4e%11&#x27;], &#x27;shutdown_timeout&#x27;: 5, &#x27;taskbar&#x27;: False, &#x27;with_coverage&#x27;: False, &#x27;scheduler_groups&#x27;: None, &#x27;port&#x27;: 8000, &#x27;maxthreads&#x27;: None, &#x27;softcron&#x27;: False, &#x27;server_name&#x27;: &#x27;UltraWILL&#x27;, &#x27;bpython&#x27;: False, &#x27;nogui&#x27;: False, &#x27;pid_filename&#x27;: &#x27;httpserver.pid&#x27;, &#x27;extcron&#x27;: False, &#x27;runcron&#x27;: False, &#x27;run_system_tests&#x27;: False, &#x27;test&#x27;: None, &#x27;folder&#x27;: &#x27;C:\\\\Users\\\\Will\\\\Desktop\\\\web2py&#x27;, &#x27;config&#x27;: &#x27;&#x27;, &#x27;minthreads&#x27;: None, &#x27;shell&#x27;: None, &#x27;run&#x27;: &#x27;&#x27;, &#x27;log_filename&#x27;: &#x27;httpserver.log&#x27;, &#x27;profiler_dir&#x27;: None, &#x27;args&#x27;: [&#x27;&#x27;], &#x27;socket_timeout&#x27;: 5, &#x27;ssl_ca_certificate&#x27;: None, &#x27;scheduler&#x27;: None, &#x27;interfaces&#x27;: None, &#x27;ssl_private_key&#x27;: &#x27;&#x27;, &#x27;gae&#x27;: None, &#x27;password&#x27;: &#x27;&lt;ask&gt;&#x27;, &#x27;request_queue_size&#x27;: 5, &#x27;ssl_certificate&#x27;: &#x27;&#x27;, &#x27;cronjob&#x27;: False, &#x27;numthreads&#x27;: None, &#x27;quiet&#x27;: False, &#x27;import_models&#x27;: False, &#x27;timeout&#x27;: 10, &#x27;plain&#x27;: False, &#x27;nobanner&#x27;: False}&gt;</div></td></tr><tr><td style="font-weight:bold;vertical-align:top;">content_length</td><td style="vertical-align:top;">:</td><td><div>89</div></td></tr><tr><td style="font-weight:bold;vertical-align:top;">content_type</td><td style="vertical-align:top;">:</td><td><div>multipart/form-data;boundary=&quot;1480&quot;</div></td></tr><tr><td style="font-weight:bold;vertical-align:top;">db_sessions</td><td style="vertical-align:top;">:</td><td><div>set([])</div></td></tr><tr><td style="font-weight:bold;vertical-align:top;">debugging</td><td style="vertical-align:top;">:</td><td><div>False</div></td></tr><tr><td style="font-weight:bold;vertical-align:top;">gluon_parent</td><td style="vertical-align:top;">:</td><td><div>C:\\Users\\Will\\Desktop\\web2py</div></td></tr><tr><td style="font-weight:bold;vertical-align:top;">http_accept</td><td style="vertical-align:top;">:</td><td><div>application/json, text/javascript, */*; q=0.01</div></td></tr><tr><td style="font-weight:bold;vertical-align:top;">http_accept_encoding</td><td style="vertical-align:top;">:</td><td><div>gzip,deflate</div></td></tr><tr><td style="font-weight:bold;vertical-align:top;">http_accept_language</td><td style="vertical-align:top;">:</td><td><div>en-US,en;q=0.8</div></td></tr><tr><td style="font-weight:bold;vertical-align:top;">http_connection</td><td style="vertical-align:top;">:</td><td><div>keep-alive</div></td></tr><tr><td style="font-weight:bold;vertical-align:top;">http_content_length</td><td style="vertical-align:top;">:</td><td><div>89</div></td></tr><tr><td style="font-weight:bold;vertical-align:top;">http_content_type</td><td style="vertical-align:top;">:</td><td><div>multipart/form-data;boundary=&quot;1480&quot;</div></td></tr><tr><td style="font-weight:bold;vertical-align:top;">http_cookie</td><td style="vertical-align:top;">:</td><td><div>session_id_welcome=127.0.0.1-ff76e38b-267a-4115-a886-5c1468db4102; session_id_admin=127.0.0.1-34c2a0b1-37f7-4ea6-80d8-e3a3b41777bb</div></td></tr><tr><td style="font-weight:bold;vertical-align:top;">http_host</td><td style="vertical-align:top;">:</td><td><div>127.0.0.1:8000</div></td></tr><tr><td style="font-weight:bold;vertical-align:top;">http_origin</td><td style="vertical-align:top;">:</td><td><div>http://127.0.0.1:8000</div></td></tr><tr><td style="font-weight:bold;vertical-align:top;">http_referer</td><td style="vertical-align:top;">:</td><td><div>http://127.0.0.1:8000/admin/default/edit/welcome/models/db.py?id=models__db__py</div></td></tr><tr><td style="font-weight:bold;vertical-align:top;">http_user_agent</td><td style="vertical-align:top;">:</td><td><div>Mozilla/5.0 (Windows NT 6.1; WOW64) AppleWebKit/537.36 (KHTML, like Gecko) Chrome/38.0.2125.111 Safari/537.36</div></td></tr><tr><td style="font-weight:bold;vertical-align:top;">http_web2py_component_element</td><td style="vertical-align:top;">:</td><td><div>doListBreakpoints</div></td></tr><tr><td style="font-weight:bold;vertical-align:top;">http_web2py_component_location</td><td style="vertical-align:top;">:</td><td><div>http://127.0.0.1:8000/admin/default/edit/welcome/models/db.py?id=models__db__py</div></td></tr><tr><td style="font-weight:bold;vertical-align:top;">http_x_requested_with</td><td style="vertical-align:top;">:</td><td><div>XMLHttpRequest</div></td></tr><tr><td style="font-weight:bold;vertical-align:top;">is_jython</td><td style="vertical-align:top;">:</td><td><div>False</div></td></tr><tr><td style="font-weight:bold;vertical-align:top;">is_pypy</td><td style="vertical-align:top;">:</td><td><div>False</div></td></tr><tr><td style="font-weight:bold;vertical-align:top;">is_source</td><td style="vertical-align:top;">:</td><td><div>False</div></td></tr><tr><td style="font-weight:bold;vertical-align:top;">local_hosts</td><td style="vertical-align:top;">:</td><td><div><table><tr><td><div>fe80::6538:180a:7cd2:7ff2%21</div></td></tr><tr><td><div>::ffff:127.0.0.1</div></td></tr><tr><td><div>::1</div></td></tr><tr><td><div>fe80::dc8d:5e8e:3195:ea4e%11</div></td></tr><tr><td><div>UltraWILL</div></td></tr><tr><td><div>10.21.5.114</div></td></tr><tr><td><div>127.0.0.1</div></td></tr><tr><td><div>192.168.56.1</div></td></tr></table></div></td></tr><tr><td style="font-weight:bold;vertical-align:top;">path_info</td><td style="vertical-align:top;">:</td><td><div>/admin/debug/list_breakpoints</div></td></tr><tr><td style="font-weight:bold;vertical-align:top;">query_string</td><td style="vertical-align:top;">:</td><td><div></div></td></tr><tr><td style="font-weight:bold;vertical-align:top;">remote_addr</td><td style="vertical-align:top;">:</td><td><div>127.0.0.1</div></td></tr><tr><td style="font-weight:bold;vertical-align:top;">remote_port</td><td style="vertical-align:top;">:</td><td><div>55287</div></td></tr><tr><td style="font-weight:bold;vertical-align:top;">request_method</td><td style="vertical-align:top;">:</td><td><div>POST</div></td></tr><tr><td style="font-weight:bold;vertical-align:top;">request_uri</td><td style="vertical-align:top;">:</td><td><div>/admin/debug/list_breakpoints</div></td></tr><tr><td style="font-weight:bold;vertical-align:top;">script_name</td><td style="vertical-align:top;">:</td><td><div></div></td></tr><tr><td style="font-weight:bold;vertical-align:top;">server_name</td><td style="vertical-align:top;">:</td><td><div>UltraWILL</div></td></tr><tr><td style="font-weight:bold;vertical-align:top;">server_port</td><td style="vertical-align:top;">:</td><td><div>8000</div></td></tr><tr><td style="font-weight:bold;vertical-align:top;">server_protocol</td><td style="vertical-align:top;">:</td><td><div>HTTP/1.1</div></td></tr><tr><td style="font-weight:bold;vertical-align:top;">server_software</td><td style="vertical-align:top;">:</td><td><div>Rocket 1.2.6</div></td></tr><tr><td style="font-weight:bold;vertical-align:top;">web2py_path</td><td style="vertical-align:top;">:</td><td><div>C:\\Users\\Will\\Desktop\\web2py</div></td></tr><tr><td style="font-weight:bold;vertical-align:top;">web2py_version</td><td style="vertical-align:top;">:</td><td><div>2.9.11-stable+timestamp.2014.09.15.23.35.11</div></td></tr><tr><td style="font-weight:bold;vertical-align:top;">wsgi.errors</td><td style="vertical-align:top;">:</td><td><div>&lt;open file &#x27;&lt;stderr&gt;&#x27;, mode &#x27;w&#x27; at 0x01CA60D0&gt;</div></td></tr><tr><td style="font-weight:bold;vertical-align:top;">wsgi.file_wrapper</td><td style="vertical-align:top;">:</td><td><div>&lt;class wsgiref.util.FileWrapper at 0x022F9D18&gt;</div></td></tr><tr><td style="font-weight:bold;vertical-align:top;">wsgi.input</td><td style="vertical-align:top;">:</td><td><div>&lt;socket._fileobject object at 0x07630F70&gt;</div></td></tr><tr><td style="font-weight:bold;vertical-align:top;">wsgi.multiprocess</td><td style="vertical-align:top;">:</td><td><div>False</div></td></tr><tr><td style="font-weight:bold;vertical-align:top;">wsgi.multithread</td><td style="vertical-align:top;">:</td><td><div>True</div></td></tr><tr><td style="font-weight:bold;vertical-align:top;">wsgi.run_once</td><td style="vertical-align:top;">:</td><td><div>False</div></td></tr><tr><td style="font-weight:bold;vertical-align:top;">wsgi.url_scheme</td><td style="vertical-align:top;">:</td><td><div>http</div></td></tr><tr><td style="font-weight:bold;vertical-align:top;">wsgi.version</td><td style="vertical-align:top;">:</td><td><div><table><tr><td><div>1</div></td></tr><tr><td><div>0</div></td></tr></table></div></td></tr><tr><td style="font-weight:bold;vertical-align:top;">wsgi_errors</td><td style="vertical-align:top;">:</td><td><div>&lt;open file &#x27;&lt;stderr&gt;&#x27;, mode &#x27;w&#x27; at 0x01CA60D0&gt;</div></td></tr><tr><td style="font-weight:bold;vertical-align:top;">wsgi_file_wrapper</td><td style="vertical-align:top;">:</td><td><div>&lt;class wsgiref.util.FileWrapper at 0x022F9D18&gt;</div></td></tr><tr><td style="font-weight:bold;vertical-align:top;">wsgi_input</td><td style="vertical-align:top;">:</td><td><div>&lt;socket._fileobject object at 0x07630F70&gt;</div></td></tr><tr><td style="font-weight:bold;vertical-align:top;">wsgi_multiprocess</td><td style="vertical-align:top;">:</td><td><div>False</div></td></tr><tr><td style="font-weight:bold;vertical-align:top;">wsgi_multithread</td><td style="vertical-align:top;">:</td><td><div>True</div></td></tr><tr><td style="font-weight:bold;vertical-align:top;">wsgi_run_once</td><td style="vertical-align:top;">:</td><td><div>False</div></td></tr><tr><td style="font-weight:bold;vertical-align:top;">wsgi_url_scheme</td><td style="vertical-align:top;">:</td><td><div>http</div></td></tr><tr><td style="font-weight:bold;vertical-align:top;">wsgi_version</td><td style="vertical-align:top;">:</td><td><div><table><tr><td><div>1</div></td></tr><tr><td><div>0</div></td></tr></table></div></td></tr></table></div></td></tr><tr><td style="font-weight:bold;vertical-align:top;">extension</td><td style="vertical-align:top;">:</td><td><div>html</div></td></tr><tr><td style="font-weight:bold;vertical-align:top;">folder</td><td style="vertical-align:top;">:</td><td><div>C:\\Users\\Will\\Desktop\\web2py\\applications\\admin\\</div></td></tr><tr><td style="font-weight:bold;vertical-align:top;">function</td><td style="vertical-align:top;">:</td><td><div>list_breakpoints</div></td></tr><tr><td style="font-weight:bold;vertical-align:top;">global_settings</td><td style="vertical-align:top;">:</td><td><div><table><tr><td style="font-weight:bold;vertical-align:top;">app_folders</td><td style="vertical-align:top;">:</td><td><div>set([&#x27;C:\\\\Users\\\\Will\\\\Desktop\\\\web2py\\\\applications\\\\admin\\\\&#x27;, &#x27;C:\\\\Users\\\\Will\\\\Desktop\\\\web2py\\\\applications\\\\welcome\\\\&#x27;])</div></td></tr><tr><td style="font-weight:bold;vertical-align:top;">applications_parent</td><td style="vertical-align:top;">:</td><td><div>C:\\Users\\Will\\Desktop\\web2py</div></td></tr><tr><td style="font-weight:bold;vertical-align:top;">cmd_args</td><td style="vertical-align:top;">:</td><td><div><table></table></div></td></tr><tr><td style="font-weight:bold;vertical-align:top;">cmd_options</td><td style="vertical-align:top;">:</td><td><div>&lt;Values at 0x31f3760: {&#x27;verbose&#x27;: False, &#x27;ip&#x27;: &#x27;127.0.0.1&#x27;, &#x27;debuglevel&#x27;: 30, &#x27;with_scheduler&#x27;: False, &#x27;ips&#x27;: [&#x27;10.21.5.114&#x27;, &#x27;fe80::6538:180a:7cd2:7ff2%21&#x27;, &#x27;192.168.56.1&#x27;, &#x27;fe80::dc8d:5e8e:3195:ea4e%11&#x27;], &#x27;shutdown_timeout&#x27;: 5, &#x27;taskbar&#x27;: False, &#x27;with_coverage&#x27;: False, &#x27;scheduler_groups&#x27;: None, &#x27;port&#x27;: 8000, &#x27;maxthreads&#x27;: None, &#x27;softcron&#x27;: False, &#x27;server_name&#x27;: &#x27;UltraWILL&#x27;, &#x27;bpython&#x27;: False, &#x27;nogui&#x27;: False, &#x27;pid_filename&#x27;: &#x27;httpserver.pid&#x27;, &#x27;extcron&#x27;: False, &#x27;runcron&#x27;: False, &#x27;run_system_tests&#x27;: False, &#x27;test&#x27;: None, &#x27;folder&#x27;: &#x27;C:\\\\Users\\\\Will\\\\Desktop\\\\web2py&#x27;, &#x27;config&#x27;: &#x27;&#x27;, &#x27;minthreads&#x27;: None, &#x27;shell&#x27;: None, &#x27;run&#x27;: &#x27;&#x27;, &#x27;log_filename&#x27;: &#x27;httpserver.log&#x27;, &#x27;profiler_dir&#x27;: None, &#x27;args&#x27;: [&#x27;&#x27;], &#x27;socket_timeout&#x27;: 5, &#x27;ssl_ca_certificate&#x27;: None, &#x27;scheduler&#x27;: None, &#x27;interfaces&#x27;: None, &#x27;ssl_private_key&#x27;: &#x27;&#x27;, &#x27;gae&#x27;: None, &#x27;password&#x27;: &#x27;&lt;ask&gt;&#x27;, &#x27;request_queue_size&#x27;: 5, &#x27;ssl_certificate&#x27;: &#x27;&#x27;, &#x27;cronjob&#x27;: False, &#x27;numthreads&#x27;: None, &#x27;quiet&#x27;: False, &#x27;import_models&#x27;: False, &#x27;timeout&#x27;: 10, &#x27;plain&#x27;: False, &#x27;nobanner&#x27;: False}&gt;</div></td></tr><tr><td style="font-weight:bold;vertical-align:top;">db_sessions</td><td style="vertical-align:top;">:</td><td><div>set([])</div></td></tr><tr><td style="font-weight:bold;vertical-align:top;">debugging</td><td style="vertical-align:top;">:</td><td><div>False</div></td></tr><tr><td style="font-weight:bold;vertical-align:top;">gluon_parent</td><td style="vertical-align:top;">:</td><td><div>C:\\Users\\Will\\Desktop\\web2py</div></td></tr><tr><td style="font-weight:bold;vertical-align:top;">is_jython</td><td style="vertical-align:top;">:</td><td><div>False</div></td></tr><tr><td style="font-weight:bold;vertical-align:top;">is_pypy</td><td style="vertical-align:top;">:</td><td><div>False</div></td></tr><tr><td style="font-weight:bold;vertical-align:top;">is_source</td><td style="vertical-align:top;">:</td><td><div>False</div></td></tr><tr><td style="font-weight:bold;vertical-align:top;">local_hosts</td><td style="vertical-align:top;">:</td><td><div><table><tr><td><div>fe80::6538:180a:7cd2:7ff2%21</div></td></tr><tr><td><div>::ffff:127.0.0.1</div></td></tr><tr><td><div>::1</div></td></tr><tr><td><div>fe80::dc8d:5e8e:3195:ea4e%11</div></td></tr><tr><td><div>UltraWILL</div></td></tr><tr><td><div>10.21.5.114</div></td></tr><tr><td><div>127.0.0.1</div></td></tr><tr><td><div>192.168.56.1</div></td></tr></table></div></td></tr><tr><td style="font-weight:bold;vertical-align:top;">web2py_version</td><td style="vertical-align:top;">:</td><td><div>2.9.11-stable+timestamp.2014.09.15.23.35.11</div></td></tr></table></div></td></tr><tr><td style="font-weight:bold;vertical-align:top;">is_https</td><td style="vertical-align:top;">:</td><td><div>False</div></td></tr><tr><td style="font-weight:bold;vertical-align:top;">is_local</td><td style="vertical-align:top;">:</td><td><div>True</div></td></tr><tr><td style="font-weight:bold;vertical-align:top;">is_restful</td><td style="vertical-align:top;">:</td><td><div>False</div></td></tr><tr><td style="font-weight:bold;vertical-align:top;">is_sheduler</td><td style="vertical-align:top;">:</td><td><div>None</div></td></tr><tr><td style="font-weight:bold;vertical-align:top;">is_shell</td><td style="vertical-align:top;">:</td><td><div>None</div></td></tr><tr><td style="font-weight:bold;vertical-align:top;">now</td><td style="vertical-align:top;">:</td><td><div>datetime.datetime(2014, 11, 9, 9, 45, 18, 676000)</div></td></tr><tr><td style="font-weight:bold;vertical-align:top;">raw_args</td><td style="vertical-align:top;">:</td><td><div></div></td></tr><tr><td style="font-weight:bold;vertical-align:top;">raw_extension</td><td style="vertical-align:top;">:</td><td><div>None</div></td></tr><tr><td style="font-weight:bold;vertical-align:top;">url</td><td style="vertical-align:top;">:</td><td><div>/admin/debug/list_breakpoints</div></td></tr><tr><td style="font-weight:bold;vertical-align:top;">utcnow</td><td style="vertical-align:top;">:</td><td><div>datetime.datetime(2014, 11, 9, 15, 45, 18, 676000)</div></td></tr><tr><td style="font-weight:bold;vertical-align:top;">uuid</td><td style="vertical-align:top;">:</td><td><div>admin/127.0.0.1.2014-11-09.09-45-18.f6330412-3244-491b-9d25-bc82862a02a7</div></td></tr><tr><td style="font-weight:bold;vertical-align:top;">wsgi</td><td style="vertical-align:top;">:</td><td><div>&lt;gluon.main.LazyWSGI object at 0x077EF6F0&gt;</div></td></tr></table></div>'
tRp58
sS'frames'
p59
(lp60
(dp61
S'file'
p62
S'C:\\Users\\Will\\Desktop\\web2py\\gluon\\restricted.py'
p63
sS'dump'
p64
(dp65
sS'lnum'
p66
I224
sS'lines'
p67
(dp68
sS'call'
p69
S"(code='import os\\nimport sys\\nimport cStringIO\\nimport glu...esponse._vars=response._caller(list_breakpoints)\\n', environment={'A': <class 'gluon.html.A'>, 'ANY_OF': <class 'gluon.validators.ANY_OF'>, 'ASSIGNJS': <function ASSIGNJS>, 'A_button': <function A_button>, 'B': <class 'gluon.html.B'>, 'BEAUTIFY': <class 'gluon.html.BEAUTIFY'>, 'BODY': <class 'gluon.html.BODY'>, 'BR': <class 'gluon.html.BR'>, 'BUTTON': <class 'gluon.html.BUTTON'>, 'CAT': <class 'gluon.html.CAT'>, ...}, layer=r'C:\\Users\\Will\\Desktop\\web2py\\applications\\admin\\controllers/debug.py')"
p70
sS'func'
p71
S'restricted'
p72
sa(dp73
g62
S'C:\\Users\\Will\\Desktop\\web2py\\applications\\admin\\controllers\\debug.py'
p74
sg64
(dp75
S'communicate'
p76
S'undefined'
p77
sS'gluon.debug'
p78
g77
sS'qdb_debugger'
p79
g77
sS'gluon'
p80
S"<module 'gluon' from 'C:\\Users\\Will\\Desktop\\web2py\\library.zip\\gluon\\__init__.pyc'>"
p81
sS'web_debugger'
p82
g77
ssg66
I10
sg67
(dp83
I5
S'import gluon.dal'
p84
sI6
S'import gluon.html'
p85
sI7
S'import gluon.validators'
p86
sI8
S'import code'
p87
sI9
S'import thread'
p88
sI10
S'from gluon.debug import communicate, web_debugger, qdb_debugger'
p89
sI11
S'import pydoc'
p90
sI12
S''
sI13
S''
sI14
S'if DEMO_MODE or MULTI_USER_MODE:'
p91
ssg69
S'()'
p92
sg71
S'<module>'
p93
sa(dp94
g62
S'C:\\Users\\Will\\Desktop\\web2py\\gluon\\custom_import.py'
p95
sg64
(dp96
sg66
I105
sg67
(dp97
sg69
S"(name='gluon.debug', globals={'A': <class 'gluon.html.A'>, 'ANY_OF': <class 'gluon.validators.ANY_OF'>, 'ASSIGNJS': <function ASSIGNJS>, 'A_button': <function A_button>, 'B': <class 'gluon.html.B'>, 'BEAUTIFY': <class 'gluon.html.BEAUTIFY'>, 'BODY': <class 'gluon.html.BODY'>, 'BR': <class 'gluon.html.BR'>, 'BUTTON': <class 'gluon.html.BUTTON'>, 'CAT': <class 'gluon.html.CAT'>, ...}, locals={'A': <class 'gluon.html.A'>, 'ANY_OF': <class 'gluon.validators.ANY_OF'>, 'ASSIGNJS': <function ASSIGNJS>, 'A_button': <function A_button>, 'B': <class 'gluon.html.B'>, 'BEAUTIFY': <class 'gluon.html.BEAUTIFY'>, 'BODY': <class 'gluon.html.BODY'>, 'BR': <class 'gluon.html.BR'>, 'BUTTON': <class 'gluon.html.BUTTON'>, 'CAT': <class 'gluon.html.CAT'>, ...}, fromlist=('communicate', 'web_debugger', 'qdb_debugger'), level=-1)"
p98
sg71
S'custom_importer'
p99
sa(dp100
g62
S'C:\\Users\\Will\\Desktop\\web2py\\gluon\\debug.py'
p101
sg64
(dp102
sg66
I55
sg67
(dp103
sg69
S'()'
p104
sg71
g93
sa(dp105
g62
S'C:\\Users\\Will\\Desktop\\web2py\\pdb.py'
p106
sg64
(dp107
sg66
I72
sg67
(dp108
sg69
S'(self=<pdb.Pdb instance>, completekey=None, stdin=<gluon.debug.Pipe instance>, stdout=<gluon.debug.Pipe instance>, skip=None)'
p109
sg71
g50
sa(dp110
g62
S'C:\\Users\\Will\\Desktop\\web2py\\gluon\\custom_import.py'
p111
sg64
(dp112
sg66
I71
sg67
(dp113
sg69
S'(name=\'readline\', globals={\'Pdb\': <class pdb.Pdb>, \'Repr\': <class repr.Repr>, \'Restart\': <class \'pdb.Restart\'>, \'TESTCMD\': \'import x; x.main()\', \'__all__\': [\'run\', \'pm\', \'Pdb\', \'runeval\', \'runctx\', \'runcall\', \'set_trace\', \'post_mortem\', \'help\'], \'__builtins__\': {\'ArithmeticError\': <type \'exceptions.ArithmeticError\'>, \'AssertionError\': <type \'exceptions.AssertionError\'>, \'AttributeError\': <type \'exceptions.AttributeError\'>, \'BaseException\': <type \'exceptions.BaseException\'>, \'BufferError\': <type \'exceptions.BufferError\'>, \'BytesWarning\': <type \'exceptions.BytesWarning\'>, \'DeprecationWarning\': <type \'exceptions.DeprecationWarning\'>, \'EOFError\': <type \'exceptions.EOFError\'>, \'Ellipsis\': Ellipsis, \'EnvironmentError\': <type \'exceptions.EnvironmentError\'>, ...}, \'__doc__\': \'A Python debugger.\', \'__file__\': r\'C:\\Users\\Will\\Desktop\\web2py\\library.zip\\pdb.pyc\', \'__loader__\': <zipimporter object "C:\\Users\\Will\\Desktop\\web2py\\library.zip">, \'__name__\': \'pdb\', ...}, locals={}, fromlist=[], level=-1)'
p114
sg71
g99
sa(dp115
g62
S'C:\\Python27\\lib\\site-packages\\readline.py'
p116
sg64
(dp117
S'Readline'
p118
g77
sS'pyreadline'
p119
g77
ssg66
I6
sg67
(dp120
I2
S'#this file is needed in site-packages to emulate readline'
p121
sI3
S'#necessary for rlcompleter since it relies on the existance'
p122
sI4
S'#of a readline module'
p123
sI5
S'from __future__ import print_function, unicode_literals, absolute_import'
p124
sI6
S'from pyreadline.rlmain import Readline'
p125
sI7
S''
sI8
S"__all__ = [ 'parse_and_bind',"
p126
sI9
S"            'get_line_buffer',"
p127
sI10
S"            'insert_text',"
p128
sI11
S"            'clear_history',"
p129
ssg69
S'()'
p130
sg71
g93
sa(dp131
g62
S'C:\\Users\\Will\\Desktop\\web2py\\gluon\\custom_import.py'
p132
sg64
(dp133
sg66
I71
sg67
(dp134
sg69
S"(name='pyreadline.rlmain', globals={'__builtins__': {'ArithmeticError': <type 'exceptions.ArithmeticError'>, 'AssertionError': <type 'exceptions.AssertionError'>, 'AttributeError': <type 'exceptions.AttributeError'>, 'BaseException': <type 'exceptions.BaseException'>, 'BufferError': <type 'exceptions.BufferError'>, 'BytesWarning': <type 'exceptions.BytesWarning'>, 'DeprecationWarning': <type 'exceptions.DeprecationWarning'>, 'EOFError': <type 'exceptions.EOFError'>, 'Ellipsis': Ellipsis, 'EnvironmentError': <type 'exceptions.EnvironmentError'>, ...}, '__doc__': None, '__file__': None, '__name__': None, '__package__': None, 'absolute_import': None, 'print_function': None, 'unicode_literals': None}, locals={'__builtins__': {'ArithmeticError': <type 'exceptions.ArithmeticError'>, 'AssertionError': <type 'exceptions.AssertionError'>, 'AttributeError': <type 'exceptions.AttributeError'>, 'BaseException': <type 'exceptions.BaseException'>, 'BufferError': <type 'exceptions.BufferError'>, 'BytesWarning': <type 'exceptions.BytesWarning'>, 'DeprecationWarning': <type 'exceptions.DeprecationWarning'>, 'EOFError': <type 'exceptions.EOFError'>, 'Ellipsis': Ellipsis, 'EnvironmentError': <type 'exceptions.EnvironmentError'>, ...}, '__doc__': None, '__file__': None, '__name__': None, '__package__': None, 'absolute_import': None, 'print_function': None, 'unicode_literals': None}, fromlist=('Readline',), level=0)"
p135
sg71
g99
sa(dp136
g62
S'C:\\Python27\\lib\\site-packages\\pyreadline\\__init__.py'
p137
sg64
(dp138
S'console'
p139
g77
sS'modes'
p140
g77
sS'unicode_helper'
p141
g77
sS'lineeditor'
p142
g77
sS'clipboard'
p143
g77
sS'logger'
p144
g77
ssg66
I11
sg67
(dp145
I4
S'#       Copyright (C) 2006  Jorgen Stenarson. <jorgen.stenarson@bostream.nu>'
p146
sI5
S'#'
sI6
S'#  Distributed under the terms of the BSD License.  The full license is in'
p147
sI7
S'#  the file COPYING, distributed as part of this software.'
p148
sI8
S'#*****************************************************************************'
p149
sI9
S'from __future__ import print_function, unicode_literals, absolute_import'
p150
sI10
S''
sI11
S'from . import unicode_helper, logger, clipboard, lineeditor, modes, console'
p151
sI12
S'from .rlmain import *'
p152
sI13
S'from . import rlmain'
p153
ssg69
S'()'
p154
sg71
g93
sa(dp155
g62
S'C:\\Users\\Will\\Desktop\\web2py\\gluon\\custom_import.py'
p156
sg64
(dp157
sg66
I105
sg67
(dp158
sg69
S"(name='', globals={'__builtins__': {'ArithmeticError': <type 'exceptions.ArithmeticError'>, 'AssertionError': <type 'exceptions.AssertionError'>, 'AttributeError': <type 'exceptions.AttributeError'>, 'BaseException': <type 'exceptions.BaseException'>, 'BufferError': <type 'exceptions.BufferError'>, 'BytesWarning': <type 'exceptions.BytesWarning'>, 'DeprecationWarning': <type 'exceptions.DeprecationWarning'>, 'EOFError': <type 'exceptions.EOFError'>, 'Ellipsis': Ellipsis, 'EnvironmentError': <type 'exceptions.EnvironmentError'>, ...}, '__doc__': None, '__file__': None, '__name__': None, '__package__': None, '__path__': None, 'absolute_import': None, 'print_function': None, 'unicode_literals': None}, locals={'__builtins__': {'ArithmeticError': <type 'exceptions.ArithmeticError'>, 'AssertionError': <type 'exceptions.AssertionError'>, 'AttributeError': <type 'exceptions.AttributeError'>, 'BaseException': <type 'exceptions.BaseException'>, 'BufferError': <type 'exceptions.BufferError'>, 'BytesWarning': <type 'exceptions.BytesWarning'>, 'DeprecationWarning': <type 'exceptions.DeprecationWarning'>, 'EOFError': <type 'exceptions.EOFError'>, 'Ellipsis': Ellipsis, 'EnvironmentError': <type 'exceptions.EnvironmentError'>, ...}, '__doc__': None, '__file__': None, '__name__': None, '__package__': None, '__path__': None, 'absolute_import': None, 'print_function': None, 'unicode_literals': None}, fromlist=('unicode_helper', 'logger', 'clipboard', 'lineeditor', 'modes', 'console'), level=1)"
p159
sg71
g99
sa(dp160
g62
S'C:\\Python27\\lib\\site-packages\\pyreadline\\console\\__init__.py'
p161
sg64
(dp162
sg66
I15
sg67
(dp163
I10
S'        success = True'
p164
sI11
S'    except ImportError:'
p165
sI12
S'        raise'
p166
sI13
S'else:'
p167
sI14
S'    try:'
p168
sI15
S'        from .console import *'
p169
sI16
S'        success = True'
p170
sI17
S'    except ImportError:'
p171
sI18
S'        pass'
p172
sI19
S'        raise'
p173
ssg69
S'()'
p174
sg71
g93
sa(dp175
g62
S'C:\\Users\\Will\\Desktop\\web2py\\gluon\\custom_import.py'
p176
sg64
(dp177
sg66
I105
sg67
(dp178
sg69
S"(name='console', globals={'__builtins__': {'ArithmeticError': <type 'exceptions.ArithmeticError'>, 'AssertionError': <type 'exceptions.AssertionError'>, 'AttributeError': <type 'exceptions.AttributeError'>, 'BaseException': <type 'exceptions.BaseException'>, 'BufferError': <type 'exceptions.BufferError'>, 'BytesWarning': <type 'exceptions.BytesWarning'>, 'DeprecationWarning': <type 'exceptions.DeprecationWarning'>, 'EOFError': <type 'exceptions.EOFError'>, 'Ellipsis': Ellipsis, 'EnvironmentError': <type 'exceptions.EnvironmentError'>, ...}, '__doc__': None, '__file__': None, '__name__': None, '__package__': None, '__path__': None, 'absolute_import': None, 'glob': None, 'in_ironpython': None, 'print_function': None, ...}, locals={'__builtins__': {'ArithmeticError': <type 'exceptions.ArithmeticError'>, 'AssertionError': <type 'exceptions.AssertionError'>, 'AttributeError': <type 'exceptions.AttributeError'>, 'BaseException': <type 'exceptions.BaseException'>, 'BufferError': <type 'exceptions.BufferError'>, 'BytesWarning': <type 'exceptions.BytesWarning'>, 'DeprecationWarning': <type 'exceptions.DeprecationWarning'>, 'EOFError': <type 'exceptions.EOFError'>, 'Ellipsis': Ellipsis, 'EnvironmentError': <type 'exceptions.EnvironmentError'>, ...}, '__doc__': None, '__file__': None, '__name__': None, '__package__': None, '__path__': None, 'absolute_import': None, 'glob': None, 'in_ironpython': None, 'print_function': None, ...}, fromlist=('*',), level=1)"
p179
sg71
g99
sa(dp180
g62
S'C:\\Python27\\lib\\site-packages\\pyreadline\\console\\console.py'
p181
sg64
(dp182
S'unicode_helper'
p183
g77
sS'pyreadline'
p184
g77
ssg66
I21
sg67
(dp185
I16
S''
sI17
S'import sys,os'
p186
sI18
S'import traceback'
p187
sI19
S'import re'
p188
sI20
S''
sI21
S'import pyreadline.unicode_helper as unicode_helper'
p189
sI22
S''
sI23
S'from pyreadline.logger import log'
p190
sI24
S'from pyreadline.unicode_helper import ensure_unicode, ensure_str'
p191
sI25
S'from pyreadline.keysyms import make_KeyPress, KeyPress'
p192
ssg69
S'()'
p193
sg71
g93
sasS'pyver'
p194
S'Python 2.7.6: C:\\Users\\Will\\Desktop\\web2py\\web2py.exe (prefix: C:\\Python27)'
p195
sS'session'
p196
g57
(S's\xea\x03\x00\x00<div><table><tr><td style="font-weight:bold;vertical-align:top;">authorized</td><td style="vertical-align:top;">:</td><td><div>True</div></td></tr><tr><td style="font-weight:bold;vertical-align:top;">check_version</td><td style="vertical-align:top;">:</td><td><div>True</div></td></tr><tr><td style="font-weight:bold;vertical-align:top;">flash</td><td style="vertical-align:top;">:</td><td><div>None</div></td></tr><tr><td style="font-weight:bold;vertical-align:top;">is_mobile</td><td style="vertical-align:top;">:</td><td><div>auto</div></td></tr><tr><td style="font-weight:bold;vertical-align:top;">last_time</td><td style="vertical-align:top;">:</td><td><div>1415547918.728</div></td></tr><tr><td style="font-weight:bold;vertical-align:top;">pam_user</td><td style="vertical-align:top;">:</td><td><div>None</div></td></tr><tr><td style="font-weight:bold;vertical-align:top;">token</td><td style="vertical-align:top;">:</td><td><div>cac6b52f-7ce7-4dfa-9024-50542aaa52b2</div></td></tr></table></div>'
tRp197
sS'etype'
p198
S"<type 'exceptions.AttributeError'>"
p199
sS'date'
p200
S'Sun Nov 09 09:45:18 2014'
p201
sS'response'
p202
g57
(S's\xbf\x1d\x00\x00<div><table><tr><td style="font-weight:bold;vertical-align:top;">body</td><td style="vertical-align:top;">:</td><td><div>&lt;cStringIO.StringO object at 0x035F3820&gt;</div></td></tr><tr><td style="font-weight:bold;vertical-align:top;">cookies</td><td style="vertical-align:top;">:</td><td><div><table><tr><td style="font-weight:bold;vertical-align:top;">session_id_admin</td><td style="vertical-align:top;">:</td><td><div>127.0.0.1-34c2a0b1-37f7-4ea6-80d8-e3a3b41777bb<table><tr><td style="font-weight:bold;vertical-align:top;">comment</td><td style="vertical-align:top;">:</td><td><div></div></td></tr><tr><td style="font-weight:bold;vertical-align:top;">domain</td><td style="vertical-align:top;">:</td><td><div></div></td></tr><tr><td style="font-weight:bold;vertical-align:top;">expires</td><td style="vertical-align:top;">:</td><td><div></div></td></tr><tr><td style="font-weight:bold;vertical-align:top;">httponly</td><td style="vertical-align:top;">:</td><td><div></div></td></tr><tr><td style="font-weight:bold;vertical-align:top;">max-age</td><td style="vertical-align:top;">:</td><td><div></div></td></tr><tr><td style="font-weight:bold;vertical-align:top;">path</td><td style="vertical-align:top;">:</td><td><div>/</div></td></tr><tr><td style="font-weight:bold;vertical-align:top;">secure</td><td style="vertical-align:top;">:</td><td><div></div></td></tr><tr><td style="font-weight:bold;vertical-align:top;">version</td><td style="vertical-align:top;">:</td><td><div></div></td></tr></table></div></td></tr></table></div></td></tr><tr><td style="font-weight:bold;vertical-align:top;">delimiters</td><td style="vertical-align:top;">:</td><td><div><table><tr><td><div>{{</div></td></tr><tr><td><div>}}</div></td></tr></table></div></td></tr><tr><td style="font-weight:bold;vertical-align:top;">files</td><td style="vertical-align:top;">:</td><td><div><table><tr><td><div>/admin/static/plugin_multiselect/jquery.multi-select.js</div></td></tr><tr><td><div>/admin/static/plugin_multiselect/multi-select.css</div></td></tr><tr><td><div>/admin/static/plugin_multiselect/start.js</div></td></tr><tr><td><div>/admin/static/plugin_statebutton/js/bootstrap-switch.js</div></td></tr><tr><td><div>/admin/static/plugin_statebutton/css/bootstrap-switch.css</div></td></tr></table></div></td></tr><tr><td style="font-weight:bold;vertical-align:top;">flash</td><td style="vertical-align:top;">:</td><td><div></div></td></tr><tr><td style="font-weight:bold;vertical-align:top;">form_label_separator</td><td style="vertical-align:top;">:</td><td><div>: </div></td></tr><tr><td style="font-weight:bold;vertical-align:top;">formstyle</td><td style="vertical-align:top;">:</td><td><div>table3cols</div></td></tr><tr><td style="font-weight:bold;vertical-align:top;">generic_patterns</td><td style="vertical-align:top;">:</td><td><div><table><tr><td><div>*</div></td></tr></table></div></td></tr><tr><td style="font-weight:bold;vertical-align:top;">headers</td><td style="vertical-align:top;">:</td><td><div><table><tr><td style="font-weight:bold;vertical-align:top;">X-Powered-By</td><td style="vertical-align:top;">:</td><td><div>web2py</div></td></tr></table></div></td></tr><tr><td style="font-weight:bold;vertical-align:top;">menu</td><td style="vertical-align:top;">:</td><td><div><table><tr><td><div><table><tr><td><div>Site</div></td></tr><tr><td><div>False</div></td></tr><tr><td><div>/admin/default/site</div></td></tr></table></div></td></tr><tr><td><div><table><tr><td><div>Help</div></td></tr><tr><td><div>False</div></td></tr><tr><td><div>/examples/default/documentation</div></td></tr></table></div></td></tr><tr><td><div><table><tr><td><div>Logout</div></td></tr><tr><td><div>False</div></td></tr><tr><td><div>/admin/default/logout</div></td></tr></table></div></td></tr><tr><td><div><table><tr><td><div>Debug</div></td></tr><tr><td><div>False</div></td></tr><tr><td><div>/admin/debug/interact</div></td></tr></table></div></td></tr></table></div></td></tr><tr><td style="font-weight:bold;vertical-align:top;">meta</td><td style="vertical-align:top;">:</td><td><div><table></table></div></td></tr><tr><td style="font-weight:bold;vertical-align:top;">models_to_run</td><td style="vertical-align:top;">:</td><td><div><table><tr><td><div>^\\w+\\.py$</div></td></tr><tr><td><div>^debug/\\w+\\.py$</div></td></tr><tr><td><div>^debug/list_breakpoints/\\w+\\.py$</div></td></tr></table></div></td></tr><tr><td style="font-weight:bold;vertical-align:top;">postprocessing</td><td style="vertical-align:top;">:</td><td><div><table></table></div></td></tr><tr><td style="font-weight:bold;vertical-align:top;">session_client</td><td style="vertical-align:top;">:</td><td><div>127.0.0.1</div></td></tr><tr><td style="font-weight:bold;vertical-align:top;">session_cookie_compression_level</td><td style="vertical-align:top;">:</td><td><div>None</div></td></tr><tr><td style="font-weight:bold;vertical-align:top;">session_cookie_expires</td><td style="vertical-align:top;">:</td><td><div>None</div></td></tr><tr><td style="font-weight:bold;vertical-align:top;">session_cookie_key</td><td style="vertical-align:top;">:</td><td><div>None</div></td></tr><tr><td style="font-weight:bold;vertical-align:top;">session_data_name</td><td style="vertical-align:top;">:</td><td><div>session_data_admin</div></td></tr><tr><td style="font-weight:bold;vertical-align:top;">session_file</td><td style="vertical-align:top;">:</td><td><div>&lt;open file &#x27;C:\\\\Users\\\\Will\\\\Desktop\\\\web2py\\\\applications\\\\admin\\\\sessions\\\\127.0.0.1-34c2a0b1-37f7-4ea6-80d8-e3a3b41777bb&#x27;, mode &#x27;rb+&#x27; at 0x072F2F40&gt;</div></td></tr><tr><td style="font-weight:bold;vertical-align:top;">session_filename</td><td style="vertical-align:top;">:</td><td><div>C:\\Users\\Will\\Desktop\\web2py\\applications\\admin\\sessions\\127.0.0.1-34c2a0b1-37f7-4ea6-80d8-e3a3b41777bb</div></td></tr><tr><td style="font-weight:bold;vertical-align:top;">session_hash</td><td style="vertical-align:top;">:</td><td><div>4efb1b6cdf26324e20424f413f5a0a74</div></td></tr><tr><td style="font-weight:bold;vertical-align:top;">session_id</td><td style="vertical-align:top;">:</td><td><div>127.0.0.1-34c2a0b1-37f7-4ea6-80d8-e3a3b41777bb</div></td></tr><tr><td style="font-weight:bold;vertical-align:top;">session_id_name</td><td style="vertical-align:top;">:</td><td><div>session_id_admin</div></td></tr><tr><td style="font-weight:bold;vertical-align:top;">session_locked</td><td style="vertical-align:top;">:</td><td><div>True</div></td></tr><tr><td style="font-weight:bold;vertical-align:top;">session_masterapp</td><td style="vertical-align:top;">:</td><td><div>admin</div></td></tr><tr><td style="font-weight:bold;vertical-align:top;">session_new</td><td style="vertical-align:top;">:</td><td><div>False</div></td></tr><tr><td style="font-weight:bold;vertical-align:top;">session_storage_type</td><td style="vertical-align:top;">:</td><td><div>file</div></td></tr><tr><td style="font-weight:bold;vertical-align:top;">static_version</td><td style="vertical-align:top;">:</td><td><div>2.9.11</div></td></tr><tr><td style="font-weight:bold;vertical-align:top;">status</td><td style="vertical-align:top;">:</td><td><div>200</div></td></tr><tr><td style="font-weight:bold;vertical-align:top;">subtitle</td><td style="vertical-align:top;">:</td><td><div>admin</div></td></tr><tr><td style="font-weight:bold;vertical-align:top;">title</td><td style="vertical-align:top;">:</td><td><div>list_breakpoints </div></td></tr><tr><td style="font-weight:bold;vertical-align:top;">view</td><td style="vertical-align:top;">:</td><td><div>debug/list_breakpoints.html</div></td></tr></table></div>'
tRp203
sS'locals'
p204
(dp205
S'unicode_literals'
p206
S'None'
p207
sS'__builtins__'
p208
S"{'ArithmeticError': <type 'exceptions.ArithmeticError'>, 'AssertionError': <type 'exceptions.AssertionError'>, 'AttributeError': <type 'exceptions.AttributeError'>, 'BaseException': <type 'exceptions.BaseException'>, 'BufferError': <type 'exceptions.BufferError'>, 'BytesWarning': <type 'exceptions.BytesWarning'>, 'DeprecationWarning': <type 'exceptions.DeprecationWarning'>, 'EOFError': <type 'exceptions.EOFError'>, 'Ellipsis': Ellipsis, 'EnvironmentError': <type 'exceptions.EnvironmentError'>, ...}"
p209
sS'__file__'
p210
S'None'
p211
sS'traceback'
p212
S'None'
p213
sS'absolute_import'
p214
S'None'
p215
sS'__package__'
p216
S'None'
p217
sS'sys'
p218
S'None'
p219
sS're'
p220
S'None'
p221
sS'__name__'
p222
S'None'
p223
sS'os'
p224
S'None'
p225
sg48
S'None'
p226
sS'print_function'
p227
S'None'
p228
sssg212
S'Traceback (most recent call last):\n  File "gluon/restricted.py", line 224, in restricted\n  File "C:\\Users\\Will\\Desktop\\web2py\\applications\\admin\\controllers/debug.py", line 10, in <module>\n    from gluon.debug import communicate, web_debugger, qdb_debugger\n  File "gluon/custom_import.py", line 105, in custom_importer\n  File "gluon/debug.py", line 55, in <module>\n  File "pdb.py", line 72, in __init__\n  File "gluon/custom_import.py", line 71, in custom_importer\n  File "C:\\Python27\\lib\\site-packages\\readline.py", line 6, in <module>\n    from pyreadline.rlmain import Readline\n  File "gluon/custom_import.py", line 71, in custom_importer\n  File "C:\\Python27\\lib\\site-packages\\pyreadline\\__init__.py", line 11, in <module>\n    from . import unicode_helper, logger, clipboard, lineeditor, modes, console\n  File "gluon/custom_import.py", line 105, in custom_importer\n  File "C:\\Python27\\lib\\site-packages\\pyreadline\\console\\__init__.py", line 15, in <module>\n    from .console import *\n  File "gluon/custom_import.py", line 105, in custom_importer\n  File "C:\\Python27\\lib\\site-packages\\pyreadline\\console\\console.py", line 21, in <module>\n    import pyreadline.unicode_helper as unicode_helper\nAttributeError: \'module\' object has no attribute \'unicode_helper\'\n'
p229
s.